; Function Attrs: inlinehint mustprogress nounwind uwtable
define internal void @_ZN2cv12cpu_baseline12_GLOBAL__N_19ColumnSumIdtED0Ev(ptr noundef nonnull align 8 dereferenceable(56) initializes((0, 8)) %0) unnamed_addr #5 align 2 personality ptr @__gxx_personality_v0 {
  store ptr getelementptr inbounds nuw inrange(-16, 32) (i8, ptr @_ZTVN2cv12cpu_baseline12_GLOBAL__N_19ColumnSumIdtEE, i64 16), ptr %0, align 8, !tbaa !21
  %2 = getelementptr inbounds nuw i8, ptr %0, i64 32
  %3 = load ptr, ptr %2, align 8, !tbaa !435
  %.not.i.i.i.i = icmp eq ptr %3, null
  br i1 %.not.i.i.i.i, label %_ZN2cv12cpu_baseline12_GLOBAL__N_19ColumnSumIdtED2Ev.exit, label %4

4:                                                ; preds = %1
  tail call void @_ZdlPv(ptr noundef nonnull %3) #26
  br label %_ZN2cv12cpu_baseline12_GLOBAL__N_19ColumnSumIdtED2Ev.exit

_ZN2cv12cpu_baseline12_GLOBAL__N_19ColumnSumIdtED2Ev.exit: ; preds = %1, %4
  tail call void @_ZN2cv16BaseColumnFilterD2Ev(ptr noundef nonnull align 8 dereferenceable(56) %0) #24
  tail call void @_ZdlPv(ptr noundef nonnull %0) #26
  ret void
}